target datalayout = "e-m:e-p270:32:32-p271:32:32-p272:64:64-i64:64-i128:128-f80:128-n8:16:32:64-S128"
target triple = "x86_64-pc-linux-gnu"

%struct.darktable_t = type { %struct.dt_codepath_t, i32, i32, ptr, ptr, ptr, ptr, ptr, ptr, ptr, ptr, ptr, ptr, ptr, ptr, ptr, ptr, ptr, ptr, ptr, ptr, ptr, ptr, ptr, ptr, ptr, ptr, ptr, ptr, ptr, [64 x %struct.dt_pthread_mutex_t], %struct.dt_pthread_mutex_t, %struct.dt_pthread_mutex_t, %struct.dt_pthread_mutex_t, %struct.dt_pthread_mutex_t, %struct.dt_pthread_mutex_t, ptr, ptr, ptr, ptr, ptr, ptr, ptr, ptr, ptr, ptr, ptr, ptr, ptr, %struct.dt_lua_state_t, ptr, double, ptr, i32, [47 x i32], i32, i32, ptr, ptr, %struct.dt_sys_resources_t, %struct.dt_backthumb_t, %struct.dt_gimp_t }
%struct.dt_codepath_t = type { i8, [3 x i8] }
%struct.dt_pthread_mutex_t = type { %union.pthread_mutex_t }
%union.pthread_mutex_t = type { %struct.__pthread_mutex_s }
%struct.__pthread_mutex_s = type { i32, i32, i32, i32, i32, i16, i16, %struct.__pthread_internal_list }
%struct.__pthread_internal_list = type { ptr, ptr }
%struct.dt_lua_state_t = type { i32 }
%struct.dt_sys_resources_t = type { i64, i64, ptr, ptr, i32 }
%struct.dt_backthumb_t = type { double, double, i32, i32, i32, i32 }
%struct.dt_gimp_t = type { i32, ptr, ptr, i32, i32 }
%struct._GdkRGBA = type { double, double, double, double }
%struct._DtBauhausWidget = type { %struct._GtkDrawingArea, i32, ptr, ptr, i32, [256 x i8], i32, ptr, i32, ptr, ptr, i32, ptr, i32, i32, i32, %struct._GtkBorder, %struct._GtkBorder, i32, %union.dt_bauhaus_data_t }
%struct._GtkDrawingArea = type { %struct._GtkWidget, ptr }
%struct._GtkWidget = type { %struct._GObject, ptr }
%struct._GObject = type { %struct._GTypeInstance, i32, ptr }
%struct._GTypeInstance = type { ptr }
%struct._GtkBorder = type { i16, i16, i16, i16 }
%union.dt_bauhaus_data_t = type { %struct.dt_bauhaus_slider_data_t }
%struct.dt_bauhaus_slider_data_t = type { float, float, float, float, float, float, float, float, float, float, i32, ptr, i32, ptr, i8, ptr, float, float, i8, i32, ptr }
%struct.dt_bauhaus_t = type { ptr, %struct.dt_bauhaus_popup_t, ptr, float, float, i32, i32, float, [180 x i8], i32, i32, [2 x i32], i32, ptr, ptr, float, float, float, float, float, ptr, ptr, i32, i32, i32, %struct._GdkRGBA, %struct._GdkRGBA, %struct._GdkRGBA, %struct._GdkRGBA, %struct._GdkRGBA, %struct._GdkRGBA, %struct._GdkRGBA, %struct._GdkRGBA, %struct._GdkRGBA, %struct._GdkRGBA, %struct._GdkRGBA, %struct._GdkRGBA, %struct._GdkRGBA, %struct._GdkRGBA, %struct._GdkRGBA, [3 x %struct._GdkRGBA], [5 x %struct._GdkRGBA] }
%struct.dt_bauhaus_popup_t = type { ptr, ptr, %struct._GtkBorder, %struct._cairo_rectangle_int, i32, i32, i32 }
%struct._cairo_rectangle_int = type { i32, i32, i32, i32 }
%struct.dt_action_t = type { i32, ptr, ptr, ptr, ptr, ptr }
%struct.dt_iop_module_t = type { i32, ptr, ptr, ptr, ptr, ptr, ptr, ptr, ptr, ptr, ptr, ptr, ptr, ptr, ptr, ptr, ptr, ptr, ptr, ptr, ptr, ptr, ptr, ptr, ptr, ptr, ptr, ptr, ptr, ptr, ptr, ptr, ptr, ptr, ptr, ptr, ptr, ptr, ptr, ptr, ptr, ptr, ptr, ptr, ptr, ptr, ptr, ptr, ptr, ptr, ptr, ptr, ptr, ptr, ptr, ptr, ptr, [20 x i8], i32, i32, i32, i32, i32, i32, i32, [8 x i8], [4 x float], [4 x float], [4 x float], [4 x float], [4 x float], [4 x float], ptr, %struct.dt_dev_histogram_stats_t, [4 x i32], i32, i32, ptr, i32, i32, ptr, ptr, i32, ptr, %struct.dt_pthread_mutex_t, ptr, ptr, ptr, ptr, %struct.anon.4, ptr, ptr, ptr, ptr, ptr, ptr, ptr, i32, ptr, ptr, ptr, ptr, ptr, ptr, ptr, i32, ptr, i32, [128 x i8], i32, ptr, ptr, i32, [12 x i8] }
%struct.dt_dev_histogram_stats_t = type { i32, i64, i32, i32 }
%struct.anon.4 = type { %struct.anon.5, %struct.anon.6 }
%struct.anon.5 = type { ptr, ptr }
%struct.anon.6 = type { ptr, i32 }
%struct._GSList = type { ptr, ptr }
%struct.dt_action_target_t = type { ptr, ptr }

@dt_bh_get_type.static_g_define_type_id = internal global i64 0, align 8
@darktable = external global %struct.darktable_t, align 8
@_action_def_slider = internal constant { ptr, ptr, ptr, ptr, i32, [4 x i8] } { ptr @.str.73, ptr @_action_process_slider, ptr @_action_elements_slider, ptr @_action_fallbacks_slider, i32 0, [4 x i8] zeroinitializer }, align 8
@_action_def_combo = internal constant { ptr, ptr, ptr, ptr, i32, [4 x i8] } { ptr @.str.86, ptr @_action_process_combo, ptr @_action_elements_combo, ptr @_action_fallbacks_combo, i32 0, [4 x i8] zeroinitializer }, align 8

; Function Attrs: nounwind uwtable
define i64 @dt_bh_get_type() #0 {
  %1 = alloca i32, align 4
  %2 = alloca i64, align 8
  %3 = alloca ptr, align 8
  %4 = alloca i64, align 8
  %5 = alloca i64, align 8
  call void @llvm.lifetime.start.p0(i64 8, ptr %2) #13
  call void @llvm.lifetime.start.p0(i64 8, ptr %3) #13
  store ptr @dt_bh_get_type.static_g_define_type_id, ptr %3, align 8, !tbaa !6
  %6 = load ptr, ptr %3, align 8, !tbaa !6
  %7 = load atomic i64, ptr %6 seq_cst, align 8
  store i64 %7, ptr %2, align 8
  %8 = load i64, ptr %2, align 8, !tbaa !11
  store i64 %8, ptr %4, align 8, !tbaa !11
  call void @llvm.lifetime.end.p0(i64 8, ptr %3) #13
  call void @llvm.lifetime.end.p0(i64 8, ptr %2) #13
  %9 = load i64, ptr %4, align 8, !tbaa !11
  %10 = icmp ne i64 %9, 0
  br i1 %10, label %14, label %11

11:                                               ; preds = %0
  %12 = call i32 @g_once_init_enter(ptr noundef @dt_bh_get_type.static_g_define_type_id)
  %13 = icmp ne i32 %12, 0
  br label %14

14:                                               ; preds = %11, %0
  %15 = phi i1 [ false, %0 ], [ %13, %11 ]
  %16 = zext i1 %15 to i32
  store i32 %16, ptr %1, align 4, !tbaa !13
  %17 = load i32, ptr %1, align 4, !tbaa !13
  %18 = icmp ne i32 %17, 0
  br i1 %18, label %19, label %22

19:                                               ; preds = %14
  call void @llvm.lifetime.start.p0(i64 8, ptr %5) #13
  %20 = call i64 @dt_bh_get_type_once()
  store i64 %20, ptr %5, align 8, !tbaa !11
  %21 = load i64, ptr %5, align 8, !tbaa !11
  call void @g_once_init_leave(ptr noundef @dt_bh_get_type.static_g_define_type_id, i64 noundef %21)
  call void @llvm.lifetime.end.p0(i64 8, ptr %5) #13
  br label %22

22:                                               ; preds = %19, %14
  %23 = load i64, ptr @dt_bh_get_type.static_g_define_type_id, align 8, !tbaa !11
  ret i64 %23
}

; Function Attrs: inlinehint nounwind uwtable
define internal ptr @DT_BAUHAUS_WIDGET(ptr noundef %0) #4 {
  %2 = alloca ptr, align 8
  store ptr %0, ptr %2, align 8, !tbaa !32
  %3 = load ptr, ptr %2, align 8, !tbaa !32
  %4 = call i64 @dt_bh_get_type()
  %5 = call ptr @g_type_check_instance_cast(ptr noundef %3, i64 noundef %4)
  ret ptr %5
}

; Function Attrs: nounwind uwtable
define ptr @dt_bauhaus_widget_set_label(ptr noundef %0, ptr noundef %1, ptr noundef %2) #0 {
  %4 = alloca ptr, align 8
  %5 = alloca ptr, align 8
  %6 = alloca ptr, align 8
  %7 = alloca ptr, align 8
  %8 = alloca ptr, align 8
  %9 = alloca ptr, align 8
  %10 = alloca ptr, align 8
  %11 = alloca ptr, align 8
  store ptr %0, ptr %4, align 8, !tbaa !15
  store ptr %1, ptr %5, align 8, !tbaa !171
  store ptr %2, ptr %6, align 8, !tbaa !171
  call void @llvm.lifetime.start.p0(i64 8, ptr %7) #13
  store ptr null, ptr %7, align 8, !tbaa !214
  call void @llvm.lifetime.start.p0(i64 8, ptr %8) #13
  %12 = load ptr, ptr %4, align 8, !tbaa !15
  %13 = call ptr @DT_BAUHAUS_WIDGET(ptr noundef %12)
  store ptr %13, ptr %8, align 8, !tbaa !17
  %14 = load ptr, ptr %8, align 8, !tbaa !17
  %15 = getelementptr inbounds nuw %struct._DtBauhausWidget, ptr %14, i32 0, i32 5
  %16 = getelementptr inbounds [256 x i8], ptr %15, i64 0, i64 0
  call void @llvm.memset.p0.i64(ptr align 4 %16, i8 0, i64 256, i1 false)
  %17 = load ptr, ptr %6, align 8, !tbaa !171
  %18 = icmp ne ptr %17, null
  br i1 %18, label %19, label %26

19:                                               ; preds = %3
  %20 = load ptr, ptr %8, align 8, !tbaa !17
  %21 = getelementptr inbounds nuw %struct._DtBauhausWidget, ptr %20, i32 0, i32 5
  %22 = getelementptr inbounds [256 x i8], ptr %21, i64 0, i64 0
  %23 = load ptr, ptr %6, align 8, !tbaa !171
  %24 = call ptr @g_dpgettext(ptr noundef null, ptr noundef %23, i64 noundef 0)
  %25 = call i64 @g_strlcpy(ptr noundef %22, ptr noundef %24, i64 noundef 256)
  br label %26

26:                                               ; preds = %19, %3
  %27 = load ptr, ptr %5, align 8, !tbaa !171
  %28 = icmp ne ptr %27, null
  br i1 %28, label %29, label %35

29:                                               ; preds = %26
  %30 = load ptr, ptr %5, align 8, !tbaa !171
  %31 = call ptr @g_dpgettext(ptr noundef null, ptr noundef %30, i64 noundef 0)
  %32 = call noalias ptr @g_strdup(ptr noundef %31)
  %33 = load ptr, ptr %8, align 8, !tbaa !17
  %34 = getelementptr inbounds nuw %struct._DtBauhausWidget, ptr %33, i32 0, i32 7
  store ptr %32, ptr %34, align 8, !tbaa !215
  br label %35

35:                                               ; preds = %29, %26
  %36 = load ptr, ptr %8, align 8, !tbaa !17
  %37 = getelementptr inbounds nuw %struct._DtBauhausWidget, ptr %36, i32 0, i32 2
  %38 = load ptr, ptr %37, align 8, !tbaa !194
  %39 = icmp ne ptr %38, null
  br i1 %39, label %40, label %175

40:                                               ; preds = %35
  %41 = load ptr, ptr getelementptr inbounds nuw (%struct.darktable_t, ptr @darktable, i32 0, i32 17), align 8, !tbaa !78
  %42 = getelementptr inbounds nuw %struct.dt_bauhaus_t, ptr %41, i32 0, i32 12
  %43 = load i32, ptr %42, align 8, !tbaa !105
  %44 = icmp ne i32 %43, 0
  br i1 %44, label %45, label %52

45:                                               ; preds = %40
  %46 = load ptr, ptr %8, align 8, !tbaa !17
  %47 = getelementptr inbounds nuw %struct._DtBauhausWidget, ptr %46, i32 0, i32 2
  %48 = load ptr, ptr %47, align 8, !tbaa !194
  %49 = getelementptr inbounds nuw %struct.dt_action_t, ptr %48, i32 0, i32 0
  %50 = load i32, ptr %49, align 8, !tbaa !216
  %51 = icmp ne i32 %50, 7
  br i1 %51, label %52, label %76

52:                                               ; preds = %45, %40
  %53 = load ptr, ptr %8, align 8, !tbaa !17
  %54 = getelementptr inbounds nuw %struct._DtBauhausWidget, ptr %53, i32 0, i32 2
  %55 = load ptr, ptr %54, align 8, !tbaa !194
  %56 = load ptr, ptr %5, align 8, !tbaa !171
  %57 = load ptr, ptr %6, align 8, !tbaa !171
  %58 = load ptr, ptr %4, align 8, !tbaa !15
  %59 = load ptr, ptr %8, align 8, !tbaa !17
  %60 = getelementptr inbounds nuw %struct._DtBauhausWidget, ptr %59, i32 0, i32 1
  %61 = load i32, ptr %60, align 8, !tbaa !139
  %62 = icmp eq i32 %61, 1
  %63 = select i1 %62, ptr @_action_def_slider, ptr @_action_def_combo
  %64 = call ptr @dt_action_define(ptr noundef %55, ptr noundef %56, ptr noundef %57, ptr noundef %58, ptr noundef %63)
  store ptr %64, ptr %7, align 8, !tbaa !214
  %65 = load ptr, ptr %8, align 8, !tbaa !17
  %66 = getelementptr inbounds nuw %struct._DtBauhausWidget, ptr %65, i32 0, i32 2
  %67 = load ptr, ptr %66, align 8, !tbaa !194
  %68 = getelementptr inbounds nuw %struct.dt_action_t, ptr %67, i32 0, i32 0
  %69 = load i32, ptr %68, align 8, !tbaa !216
  %70 = icmp ne i32 %69, 7
  br i1 %70, label %71, label %75

71:                                               ; preds = %52
  %72 = load ptr, ptr %7, align 8, !tbaa !214
  %73 = load ptr, ptr %8, align 8, !tbaa !17
  %74 = getelementptr inbounds nuw %struct._DtBauhausWidget, ptr %73, i32 0, i32 2
  store ptr %72, ptr %74, align 8, !tbaa !194
  br label %75

75:                                               ; preds = %71, %52
  br label %76

76:                                               ; preds = %75, %45
  call void @llvm.lifetime.start.p0(i64 8, ptr %9) #13
  %77 = load ptr, ptr %8, align 8, !tbaa !17
  %78 = getelementptr inbounds nuw %struct._DtBauhausWidget, ptr %77, i32 0, i32 2
  %79 = load ptr, ptr %78, align 8, !tbaa !194
  store ptr %79, ptr %9, align 8, !tbaa !218
  %80 = load ptr, ptr %8, align 8, !tbaa !17
  %81 = getelementptr inbounds nuw %struct._DtBauhausWidget, ptr %80, i32 0, i32 2
  %82 = load ptr, ptr %81, align 8, !tbaa !194
  %83 = getelementptr inbounds nuw %struct.dt_action_t, ptr %82, i32 0, i32 0
  %84 = load i32, ptr %83, align 8, !tbaa !216
  %85 = icmp eq i32 %84, 7
  br i1 %85, label %86, label %171

86:                                               ; preds = %76
  %87 = load ptr, ptr %8, align 8, !tbaa !17
  %88 = getelementptr inbounds nuw %struct._DtBauhausWidget, ptr %87, i32 0, i32 3
  %89 = load ptr, ptr %88, align 8, !tbaa !193
  %90 = icmp ne ptr %89, null
  br i1 %90, label %91, label %171

91:                                               ; preds = %86
  %92 = load ptr, ptr %9, align 8, !tbaa !218
  %93 = getelementptr inbounds nuw %struct.dt_iop_module_t, ptr %92, i32 0, i32 101
  %94 = load ptr, ptr %93, align 8, !tbaa !220
  %95 = icmp ne ptr %94, null
  br i1 %95, label %96, label %171

96:                                               ; preds = %91
  %97 = load ptr, ptr %9, align 8, !tbaa !218
  %98 = getelementptr inbounds nuw %struct.dt_iop_module_t, ptr %97, i32 0, i32 101
  %99 = load ptr, ptr %98, align 8, !tbaa !220
  %100 = getelementptr inbounds nuw %struct._GSList, ptr %99, i32 0, i32 0
  %101 = load ptr, ptr %100, align 8, !tbaa !230
  %102 = getelementptr inbounds nuw %struct.dt_action_target_t, ptr %101, i32 0, i32 1
  %103 = load ptr, ptr %102, align 8, !tbaa !232
  %104 = load ptr, ptr %4, align 8, !tbaa !15
  %105 = icmp eq ptr %103, %104
  br i1 %105, label %106, label %171

106:                                              ; preds = %96
  %107 = load ptr, ptr %9, align 8, !tbaa !218
  %108 = getelementptr inbounds nuw %struct.dt_iop_module_t, ptr %107, i32 0, i32 102
  %109 = load ptr, ptr %108, align 16, !tbaa !234
  %110 = icmp ne ptr %109, null
  br i1 %110, label %145, label %111

111:                                              ; preds = %106
  %112 = load ptr, ptr %9, align 8, !tbaa !218
  %113 = getelementptr inbounds nuw %struct.dt_iop_module_t, ptr %112, i32 0, i32 101
  %114 = load ptr, ptr %113, align 8, !tbaa !220
  %115 = load ptr, ptr %9, align 8, !tbaa !218
  %116 = getelementptr inbounds nuw %struct.dt_iop_module_t, ptr %115, i32 0, i32 102
  store ptr %114, ptr %116, align 16, !tbaa !234
  %117 = load ptr, ptr %9, align 8, !tbaa !218
  %118 = getelementptr inbounds nuw %struct.dt_iop_module_t, ptr %117, i32 0, i32 101
  %119 = load ptr, ptr %118, align 8, !tbaa !220
  %120 = getelementptr inbounds nuw %struct._GSList, ptr %119, i32 0, i32 1
  %121 = load ptr, ptr %120, align 8, !tbaa !235
  %122 = icmp ne ptr %121, null
  br i1 %122, label %123, label %144

123:                                              ; preds = %111
  call void @llvm.lifetime.start.p0(i64 8, ptr %10) #13
  %124 = load ptr, ptr %9, align 8, !tbaa !218
  %125 = getelementptr inbounds nuw %struct.dt_iop_module_t, ptr %124, i32 0, i32 101
  %126 = load ptr, ptr %125, align 8, !tbaa !220
  %127 = call ptr @g_slist_last(ptr noundef %126)
  store ptr %127, ptr %10, align 8, !tbaa !236
  %128 = load ptr, ptr %9, align 8, !tbaa !218
  %129 = getelementptr inbounds nuw %struct.dt_iop_module_t, ptr %128, i32 0, i32 101
  %130 = load ptr, ptr %129, align 8, !tbaa !220
  %131 = load ptr, ptr %10, align 8, !tbaa !236
  %132 = getelementptr inbounds nuw %struct._GSList, ptr %131, i32 0, i32 1
  store ptr %130, ptr %132, align 8, !tbaa !235
  %133 = load ptr, ptr %9, align 8, !tbaa !218
  %134 = getelementptr inbounds nuw %struct.dt_iop_module_t, ptr %133, i32 0, i32 101
  %135 = load ptr, ptr %134, align 8, !tbaa !220
  %136 = getelementptr inbounds nuw %struct._GSList, ptr %135, i32 0, i32 1
  %137 = load ptr, ptr %136, align 8, !tbaa !235
  %138 = load ptr, ptr %9, align 8, !tbaa !218
  %139 = getelementptr inbounds nuw %struct.dt_iop_module_t, ptr %138, i32 0, i32 101
  store ptr %137, ptr %139, align 8, !tbaa !220
  %140 = load ptr, ptr %10, align 8, !tbaa !236
  %141 = getelementptr inbounds nuw %struct._GSList, ptr %140, i32 0, i32 1
  %142 = load ptr, ptr %141, align 8, !tbaa !235
  %143 = getelementptr inbounds nuw %struct._GSList, ptr %142, i32 0, i32 1
  store ptr null, ptr %143, align 8, !tbaa !235
  call void @llvm.lifetime.end.p0(i64 8, ptr %10) #13
  br label %144

144:                                              ; preds = %123, %111
  br label %170

145:                                              ; preds = %106
  call void @llvm.lifetime.start.p0(i64 8, ptr %11) #13
  %146 = load ptr, ptr %9, align 8, !tbaa !218
  %147 = getelementptr inbounds nuw %struct.dt_iop_module_t, ptr %146, i32 0, i32 101
  %148 = load ptr, ptr %147, align 8, !tbaa !220
  %149 = getelementptr inbounds nuw %struct._GSList, ptr %148, i32 0, i32 1
  %150 = load ptr, ptr %149, align 8, !tbaa !235
  store ptr %150, ptr %11, align 8, !tbaa !236
  %151 = load ptr, ptr %9, align 8, !tbaa !218
  %152 = getelementptr inbounds nuw %struct.dt_iop_module_t, ptr %151, i32 0, i32 102
  %153 = load ptr, ptr %152, align 16, !tbaa !234
  %154 = getelementptr inbounds nuw %struct._GSList, ptr %153, i32 0, i32 1
  %155 = load ptr, ptr %154, align 8, !tbaa !235
  %156 = load ptr, ptr %9, align 8, !tbaa !218
  %157 = getelementptr inbounds nuw %struct.dt_iop_module_t, ptr %156, i32 0, i32 101
  %158 = load ptr, ptr %157, align 8, !tbaa !220
  %159 = getelementptr inbounds nuw %struct._GSList, ptr %158, i32 0, i32 1
  store ptr %155, ptr %159, align 8, !tbaa !235
  %160 = load ptr, ptr %9, align 8, !tbaa !218
  %161 = getelementptr inbounds nuw %struct.dt_iop_module_t, ptr %160, i32 0, i32 101
  %162 = load ptr, ptr %161, align 8, !tbaa !220
  %163 = load ptr, ptr %9, align 8, !tbaa !218
  %164 = getelementptr inbounds nuw %struct.dt_iop_module_t, ptr %163, i32 0, i32 102
  %165 = load ptr, ptr %164, align 16, !tbaa !234
  %166 = getelementptr inbounds nuw %struct._GSList, ptr %165, i32 0, i32 1
  store ptr %162, ptr %166, align 8, !tbaa !235
  %167 = load ptr, ptr %11, align 8, !tbaa !236
  %168 = load ptr, ptr %9, align 8, !tbaa !218
  %169 = getelementptr inbounds nuw %struct.dt_iop_module_t, ptr %168, i32 0, i32 101
  store ptr %167, ptr %169, align 8, !tbaa !220
  call void @llvm.lifetime.end.p0(i64 8, ptr %11) #13
  br label %170

170:                                              ; preds = %145, %144
  br label %171

171:                                              ; preds = %170, %96, %91, %86, %76
  %172 = load ptr, ptr %8, align 8, !tbaa !17
  %173 = call i64 @gtk_widget_get_type() #14
  %174 = call ptr @g_type_check_instance_cast(ptr noundef %172, i64 noundef %173)
  call void @gtk_widget_queue_draw(ptr noundef %174)
  call void @llvm.lifetime.end.p0(i64 8, ptr %9) #13
  br label %175

175:                                              ; preds = %171, %35
  %176 = load ptr, ptr %7, align 8, !tbaa !214
  call void @llvm.lifetime.end.p0(i64 8, ptr %8) #13
  call void @llvm.lifetime.end.p0(i64 8, ptr %7) #13
  ret ptr %176
}