; Function Attrs: nounwind uwtable
define ptr @dt_bauhaus_widget_set_label(ptr noundef %0, ptr noundef %1, ptr noundef %2) local_unnamed_addr #0 {
  %4 = load atomic i64, ptr @dt_bh_get_type.static_g_define_type_id seq_cst, align 8
  %.not.i.i = icmp eq i64 %4, 0
  br i1 %.not.i.i, label %5, label %DT_BAUHAUS_WIDGET.exit

5:                                                ; preds = %3
  %6 = tail call i32 @g_once_init_enter(ptr noundef nonnull @dt_bh_get_type.static_g_define_type_id) #19
  %.not4.i.i = icmp eq i32 %6, 0
  br i1 %.not4.i.i, label %DT_BAUHAUS_WIDGET.exit, label %7

7:                                                ; preds = %5
  %8 = tail call fastcc i64 @dt_bh_get_type_once()
  tail call void @g_once_init_leave(ptr noundef nonnull @dt_bh_get_type.static_g_define_type_id, i64 noundef %8) #19
  br label %DT_BAUHAUS_WIDGET.exit

DT_BAUHAUS_WIDGET.exit:                           ; preds = %3, %5, %7
  %9 = load i64, ptr @dt_bh_get_type.static_g_define_type_id, align 8, !tbaa !6
  %10 = tail call ptr @g_type_check_instance_cast(ptr noundef %0, i64 noundef %9) #19
  %11 = getelementptr inbounds nuw i8, ptr %10, i64 68
  tail call void @llvm.memset.p0.i64(ptr noundef nonnull align 4 dereferenceable(256) %11, i8 0, i64 256, i1 false)
  %.not = icmp eq ptr %2, null
  br i1 %.not, label %15, label %12

12:                                               ; preds = %DT_BAUHAUS_WIDGET.exit
  %13 = tail call ptr @g_dpgettext(ptr noundef null, ptr noundef nonnull %2, i64 noundef 0) #19
  %14 = tail call i64 @g_strlcpy(ptr noundef nonnull %11, ptr noundef %13, i64 noundef 256) #19
  br label %15

15:                                               ; preds = %12, %DT_BAUHAUS_WIDGET.exit
  %.not48 = icmp eq ptr %1, null
  br i1 %.not48, label %20, label %16

16:                                               ; preds = %15
  %17 = tail call ptr @g_dpgettext(ptr noundef null, ptr noundef nonnull %1, i64 noundef 0) #19
  %18 = tail call noalias ptr @g_strdup(ptr noundef %17) #19
  %19 = getelementptr inbounds nuw i8, ptr %10, i64 328
  store ptr %18, ptr %19, align 8, !tbaa !146
  br label %20

20:                                               ; preds = %16, %15
  %21 = getelementptr inbounds nuw i8, ptr %10, i64 48
  %22 = load ptr, ptr %21, align 8, !tbaa !161
  %.not49 = icmp eq ptr %22, null
  br i1 %.not49, label %70, label %23

23:                                               ; preds = %20
  %24 = load ptr, ptr getelementptr inbounds nuw (i8, ptr @darktable, i64 128), align 8, !tbaa !67
  %25 = getelementptr inbounds nuw i8, ptr %24, i64 288
  %26 = load i32, ptr %25, align 8, !tbaa !85
  %.not50 = icmp eq i32 %26, 0
  br i1 %.not50, label %29, label %27

27:                                               ; preds = %23
  %28 = load i32, ptr %22, align 8, !tbaa !176
  %.not51 = icmp eq i32 %28, 7
  br i1 %.not51, label %.thread, label %29

29:                                               ; preds = %27, %23
  %30 = getelementptr inbounds nuw i8, ptr %10, i64 40
  %31 = load i32, ptr %30, align 8, !tbaa !105
  %32 = icmp eq i32 %31, 1
  %33 = select i1 %32, ptr @_action_def_slider, ptr @_action_def_combo
  %34 = tail call ptr @dt_action_define(ptr noundef nonnull %22, ptr noundef %1, ptr noundef %2, ptr noundef %0, ptr noundef nonnull %33) #19
  %35 = load ptr, ptr %21, align 8, !tbaa !161
  %36 = load i32, ptr %35, align 8, !tbaa !176
  %.not52 = icmp eq i32 %36, 7
  br i1 %.not52, label %.thread, label %37

37:                                               ; preds = %29
  store ptr %34, ptr %21, align 8, !tbaa !161
  %.pre = load i32, ptr %34, align 8, !tbaa !176
  %38 = icmp eq i32 %.pre, 7
  br i1 %38, label %.thread, label %67

.thread:                                          ; preds = %27, %29, %37
  %.159 = phi ptr [ %34, %37 ], [ null, %27 ], [ %34, %29 ]
  %39 = phi ptr [ %34, %37 ], [ %22, %27 ], [ %35, %29 ]
  %40 = getelementptr inbounds nuw i8, ptr %10, i64 56
  %41 = load ptr, ptr %40, align 8, !tbaa !160
  %.not53 = icmp eq ptr %41, null
  br i1 %.not53, label %67, label %42

42:                                               ; preds = %.thread
  %43 = getelementptr inbounds nuw i8, ptr %39, i64 904
  %44 = load ptr, ptr %43, align 8, !tbaa !178
  %.not54 = icmp eq ptr %44, null
  br i1 %.not54, label %67, label %45

45:                                               ; preds = %42
  %46 = load ptr, ptr %44, align 8, !tbaa !189
  %47 = getelementptr inbounds nuw i8, ptr %46, i64 8
  %48 = load ptr, ptr %47, align 8, !tbaa !191
  %49 = icmp eq ptr %48, %0
  br i1 %49, label %50, label %67

50:                                               ; preds = %45
  %51 = getelementptr inbounds nuw i8, ptr %39, i64 912
  %52 = load ptr, ptr %51, align 16, !tbaa !193
  %.not55 = icmp eq ptr %52, null
  br i1 %.not55, label %53, label %62

53:                                               ; preds = %50
  store ptr %44, ptr %51, align 16, !tbaa !193
  %54 = getelementptr inbounds nuw i8, ptr %44, i64 8
  %55 = load ptr, ptr %54, align 8, !tbaa !194
  %.not56 = icmp eq ptr %55, null
  br i1 %.not56, label %67, label %56

56:                                               ; preds = %53
  %57 = tail call ptr @g_slist_last(ptr noundef nonnull %44) #19
  %58 = load ptr, ptr %43, align 8, !tbaa !178
  %59 = getelementptr inbounds nuw i8, ptr %57, i64 8
  store ptr %58, ptr %59, align 8, !tbaa !194
  %60 = getelementptr inbounds nuw i8, ptr %58, i64 8
  %61 = load ptr, ptr %60, align 8, !tbaa !194
  store ptr %61, ptr %43, align 8, !tbaa !178
  store ptr null, ptr %60, align 8, !tbaa !194
  br label %67

62:                                               ; preds = %50
  %63 = getelementptr inbounds nuw i8, ptr %44, i64 8
  %64 = load ptr, ptr %63, align 8, !tbaa !194
  %65 = getelementptr inbounds nuw i8, ptr %52, i64 8
  %66 = load ptr, ptr %65, align 8, !tbaa !194
  store ptr %66, ptr %63, align 8, !tbaa !194
  store ptr %44, ptr %65, align 8, !tbaa !194
  store ptr %64, ptr %43, align 8, !tbaa !178
  br label %67

67:                                               ; preds = %62, %56, %53, %45, %42, %.thread, %37
  %.158 = phi ptr [ %.159, %62 ], [ %.159, %56 ], [ %.159, %53 ], [ %.159, %45 ], [ %.159, %42 ], [ %.159, %.thread ], [ %34, %37 ]
  %68 = tail call i64 @gtk_widget_get_type() #20
  %69 = tail call ptr @g_type_check_instance_cast(ptr noundef nonnull %10, i64 noundef %68) #19
  tail call void @gtk_widget_queue_draw(ptr noundef %69) #19
  br label %70

70:                                               ; preds = %67, %20
  %.0 = phi ptr [ %.158, %67 ], [ null, %20 ]
  ret ptr %.0
}